target datalayout = "e-m:e-p270:32:32-p271:32:32-p272:64:64-i64:64-i128:128-f80:128-n8:16:32:64-S128"
target triple = "x86_64-pc-linux-gnu"

%struct.rsa_pss_params_30_st = type { i32, %struct.anon, i32, i32 }
%struct.anon = type { i32, i32 }
%struct.rsa_st = type { i32, ptr, i32, ptr, ptr, ptr, ptr, ptr, ptr, ptr, ptr, ptr, ptr, %struct.rsa_pss_params_30_st, ptr, ptr, %struct.crypto_ex_data_st, %struct.CRYPTO_REF_COUNT, i32, ptr, ptr, ptr, ptr, ptr, ptr, i32 }
%struct.crypto_ex_data_st = type { ptr, ptr }
%struct.CRYPTO_REF_COUNT = type { i32 }

@.str = private unnamed_addr constant [32 x i8] c"../openssl/crypto/rsa/rsa_pss.c\00", align 1
@zeroes = internal constant [8 x i8] zeroinitializer, align 1
@__func__.ossl_rsa_padding_add_PKCS1_PSS_mgf1 = private unnamed_addr constant [36 x i8] c"ossl_rsa_padding_add_PKCS1_PSS_mgf1\00", align 1

; Function Attrs: nounwind uwtable
define i32 @ossl_rsa_padding_add_PKCS1_PSS_mgf1(ptr noundef %0, ptr noundef %1, ptr noundef %2, ptr noundef %3, ptr noundef %4, ptr noundef %5) #0 {
  %7 = alloca ptr, align 8
  %8 = alloca ptr, align 8
  %9 = alloca ptr, align 8
  %10 = alloca ptr, align 8
  %11 = alloca ptr, align 8
  %12 = alloca ptr, align 8
  %13 = alloca i32, align 4
  %14 = alloca i32, align 4
  %15 = alloca i32, align 4
  %16 = alloca i32, align 4
  %17 = alloca i32, align 4
  %18 = alloca i32, align 4
  %19 = alloca i32, align 4
  %20 = alloca ptr, align 8
  %21 = alloca ptr, align 8
  %22 = alloca ptr, align 8
  %23 = alloca ptr, align 8
  %24 = alloca i32, align 4
  store ptr %0, ptr %7, align 8, !tbaa !3
  store ptr %1, ptr %8, align 8, !tbaa !8
  store ptr %2, ptr %9, align 8, !tbaa !8
  store ptr %3, ptr %10, align 8, !tbaa !10
  store ptr %4, ptr %11, align 8, !tbaa !10
  store ptr %5, ptr %12, align 8, !tbaa !14
  call void @llvm.lifetime.start.p0(i64 4, ptr %13) #5
  call void @llvm.lifetime.start.p0(i64 4, ptr %14) #5
  store i32 0, ptr %14, align 4, !tbaa !12
  call void @llvm.lifetime.start.p0(i64 4, ptr %15) #5
  %25 = load ptr, ptr %12, align 8, !tbaa !14
  %26 = load i32, ptr %25, align 4, !tbaa !12
  store i32 %26, ptr %15, align 4, !tbaa !12
  call void @llvm.lifetime.start.p0(i64 4, ptr %16) #5
  call void @llvm.lifetime.start.p0(i64 4, ptr %17) #5
  call void @llvm.lifetime.start.p0(i64 4, ptr %18) #5
  call void @llvm.lifetime.start.p0(i64 4, ptr %19) #5
  call void @llvm.lifetime.start.p0(i64 8, ptr %20) #5
  call void @llvm.lifetime.start.p0(i64 8, ptr %21) #5
  store ptr null, ptr %21, align 8, !tbaa !8
  call void @llvm.lifetime.start.p0(i64 8, ptr %22) #5
  call void @llvm.lifetime.start.p0(i64 8, ptr %23) #5
  store ptr null, ptr %23, align 8, !tbaa !16
  call void @llvm.lifetime.start.p0(i64 4, ptr %24) #5
  store i32 -1, ptr %24, align 4, !tbaa !12
  %27 = load ptr, ptr %11, align 8, !tbaa !10
  %28 = icmp eq ptr %27, null
  br i1 %28, label %29, label %31

29:                                               ; preds = %6
  %30 = load ptr, ptr %10, align 8, !tbaa !10
  store ptr %30, ptr %11, align 8, !tbaa !10
  br label %31

31:                                               ; preds = %29, %6
  %32 = load ptr, ptr %10, align 8, !tbaa !10
  %33 = call i32 @EVP_MD_get_size(ptr noundef %32)
  store i32 %33, ptr %16, align 4, !tbaa !12
  %34 = load i32, ptr %16, align 4, !tbaa !12
  %35 = icmp sle i32 %34, 0
  br i1 %35, label %36, label %37

36:                                               ; preds = %31
  br label %250

37:                                               ; preds = %31
  %38 = load i32, ptr %15, align 4, !tbaa !12
  %39 = icmp eq i32 %38, -1
  br i1 %39, label %40, label %42

40:                                               ; preds = %37
  %41 = load i32, ptr %16, align 4, !tbaa !12
  store i32 %41, ptr %15, align 4, !tbaa !12
  br label %61

42:                                               ; preds = %37
  %43 = load i32, ptr %15, align 4, !tbaa !12
  %44 = icmp eq i32 %43, -2
  br i1 %44, label %48, label %45

45:                                               ; preds = %42
  %46 = load i32, ptr %15, align 4, !tbaa !12
  %47 = icmp eq i32 %46, -2
  br i1 %47, label %48, label %49

48:                                               ; preds = %45, %42
  store i32 -3, ptr %15, align 4, !tbaa !12
  br label %60

49:                                               ; preds = %45
  %50 = load i32, ptr %15, align 4, !tbaa !12
  %51 = icmp eq i32 %50, -4
  br i1 %51, label %52, label %54

52:                                               ; preds = %49
  store i32 -3, ptr %15, align 4, !tbaa !12
  %53 = load i32, ptr %16, align 4, !tbaa !12
  store i32 %53, ptr %24, align 4, !tbaa !12
  br label %59

54:                                               ; preds = %49
  %55 = load i32, ptr %15, align 4, !tbaa !12
  %56 = icmp slt i32 %55, -4
  br i1 %56, label %57, label %58

57:                                               ; preds = %54
  call void @ERR_new()
  call void @ERR_set_debug(ptr noundef @.str, i32 noundef 216, ptr noundef @__func__.ossl_rsa_padding_add_PKCS1_PSS_mgf1)
  call void (i32, i32, ptr, ...) @ERR_set_error(i32 noundef 4, i32 noundef 136, ptr noundef null)
  br label %250

58:                                               ; preds = %54
  br label %59

59:                                               ; preds = %58, %52
  br label %60

60:                                               ; preds = %59, %48
  br label %61

61:                                               ; preds = %60, %40
  %62 = load ptr, ptr %7, align 8, !tbaa !3
  %63 = getelementptr inbounds nuw %struct.rsa_st, ptr %62, i32 0, i32 5
  %64 = load ptr, ptr %63, align 8, !tbaa !18
  %65 = call i32 @BN_num_bits(ptr noundef %64)
  %66 = sub nsw i32 %65, 1
  %67 = and i32 %66, 7
  store i32 %67, ptr %18, align 4, !tbaa !12
  %68 = load ptr, ptr %7, align 8, !tbaa !3
  %69 = call i32 @RSA_size(ptr noundef %68)
  store i32 %69, ptr %19, align 4, !tbaa !12
  %70 = load i32, ptr %18, align 4, !tbaa !12
  %71 = icmp eq i32 %70, 0
  br i1 %71, label %72, label %77

72:                                               ; preds = %61
  %73 = load ptr, ptr %8, align 8, !tbaa !8
  %74 = getelementptr inbounds nuw i8, ptr %73, i32 1
  store ptr %74, ptr %8, align 8, !tbaa !8
  store i8 0, ptr %73, align 1, !tbaa !33
  %75 = load i32, ptr %19, align 4, !tbaa !12
  %76 = add nsw i32 %75, -1
  store i32 %76, ptr %19, align 4, !tbaa !12
  br label %77

77:                                               ; preds = %72, %61
  %78 = load i32, ptr %19, align 4, !tbaa !12
  %79 = load i32, ptr %16, align 4, !tbaa !12
  %80 = add nsw i32 %79, 2
  %81 = icmp slt i32 %78, %80
  br i1 %81, label %82, label %83

82:                                               ; preds = %77
  call void @ERR_new()
  call void @ERR_set_debug(ptr noundef @.str, i32 noundef 227, ptr noundef @__func__.ossl_rsa_padding_add_PKCS1_PSS_mgf1)
  call void (i32, i32, ptr, ...) @ERR_set_error(i32 noundef 4, i32 noundef 110, ptr noundef null)
  br label %250

83:                                               ; preds = %77
  %84 = load i32, ptr %15, align 4, !tbaa !12
  %85 = icmp eq i32 %84, -3
  br i1 %85, label %86, label %100

86:                                               ; preds = %83
  %87 = load i32, ptr %19, align 4, !tbaa !12
  %88 = load i32, ptr %16, align 4, !tbaa !12
  %89 = sub nsw i32 %87, %88
  %90 = sub nsw i32 %89, 2
  store i32 %90, ptr %15, align 4, !tbaa !12
  %91 = load i32, ptr %24, align 4, !tbaa !12
  %92 = icmp sge i32 %91, 0
  br i1 %92, label %93, label %99

93:                                               ; preds = %86
  %94 = load i32, ptr %15, align 4, !tbaa !12
  %95 = load i32, ptr %24, align 4, !tbaa !12
  %96 = icmp sgt i32 %94, %95
  br i1 %96, label %97, label %99

97:                                               ; preds = %93
  %98 = load i32, ptr %24, align 4, !tbaa !12
  store i32 %98, ptr %15, align 4, !tbaa !12
  br label %99

99:                                               ; preds = %97, %93, %86
  br label %109

100:                                              ; preds = %83
  %101 = load i32, ptr %15, align 4, !tbaa !12
  %102 = load i32, ptr %19, align 4, !tbaa !12
  %103 = load i32, ptr %16, align 4, !tbaa !12
  %104 = sub nsw i32 %102, %103
  %105 = sub nsw i32 %104, 2
  %106 = icmp sgt i32 %101, %105
  br i1 %106, label %107, label %108

107:                                              ; preds = %100
  call void @ERR_new()
  call void @ERR_set_debug(ptr noundef @.str, i32 noundef 235, ptr noundef @__func__.ossl_rsa_padding_add_PKCS1_PSS_mgf1)
  call void (i32, i32, ptr, ...) @ERR_set_error(i32 noundef 4, i32 noundef 110, ptr noundef null)
  br label %250

108:                                              ; preds = %100
  br label %109

109:                                              ; preds = %108, %99
  %110 = load i32, ptr %15, align 4, !tbaa !12
  %111 = icmp sgt i32 %110, 0
  br i1 %111, label %112, label %130

112:                                              ; preds = %109
  %113 = load i32, ptr %15, align 4, !tbaa !12
  %114 = sext i32 %113 to i64
  %115 = call noalias ptr @CRYPTO_malloc(i64 noundef %114, ptr noundef @.str, i32 noundef 239)
  store ptr %115, ptr %21, align 8, !tbaa !8
  %116 = load ptr, ptr %21, align 8, !tbaa !8
  %117 = icmp eq ptr %116, null
  br i1 %117, label %118, label %119

118:                                              ; preds = %112
  br label %250

119:                                              ; preds = %112
  %120 = load ptr, ptr %7, align 8, !tbaa !3
  %121 = getelementptr inbounds nuw %struct.rsa_st, ptr %120, i32 0, i32 1
  %122 = load ptr, ptr %121, align 8, !tbaa !37
  %123 = load ptr, ptr %21, align 8, !tbaa !8
  %124 = load i32, ptr %15, align 4, !tbaa !12
  %125 = sext i32 %124 to i64
  %126 = call i32 @RAND_bytes_ex(ptr noundef %122, ptr noundef %123, i64 noundef %125, i32 noundef 0)
  %127 = icmp sle i32 %126, 0
  br i1 %127, label %128, label %129

128:                                              ; preds = %119
  br label %250

129:                                              ; preds = %119
  br label %130

130:                                              ; preds = %129, %109
  %131 = load i32, ptr %19, align 4, !tbaa !12
  %132 = load i32, ptr %16, align 4, !tbaa !12
  %133 = sub nsw i32 %131, %132
  %134 = sub nsw i32 %133, 1
  store i32 %134, ptr %17, align 4, !tbaa !12
  %135 = load ptr, ptr %8, align 8, !tbaa !8
  %136 = load i32, ptr %17, align 4, !tbaa !12
  %137 = sext i32 %136 to i64
  %138 = getelementptr inbounds i8, ptr %135, i64 %137
  store ptr %138, ptr %20, align 8, !tbaa !8
  %139 = call ptr @EVP_MD_CTX_new()
  store ptr %139, ptr %23, align 8, !tbaa !16
  %140 = load ptr, ptr %23, align 8, !tbaa !16
  %141 = icmp eq ptr %140, null
  br i1 %141, label %142, label %143

142:                                              ; preds = %130
  br label %250

143:                                              ; preds = %130
  %144 = load ptr, ptr %23, align 8, !tbaa !16
  %145 = load ptr, ptr %10, align 8, !tbaa !10
  %146 = call i32 @EVP_DigestInit_ex(ptr noundef %144, ptr noundef %145, ptr noundef null)
  %147 = icmp ne i32 %146, 0
  br i1 %147, label %148, label %159

148:                                              ; preds = %143
  %149 = load ptr, ptr %23, align 8, !tbaa !16
  %150 = call i32 @EVP_DigestUpdate(ptr noundef %149, ptr noundef @zeroes, i64 noundef 8)
  %151 = icmp ne i32 %150, 0
  br i1 %151, label %152, label %159

152:                                              ; preds = %148
  %153 = load ptr, ptr %23, align 8, !tbaa !16
  %154 = load ptr, ptr %9, align 8, !tbaa !8
  %155 = load i32, ptr %16, align 4, !tbaa !12
  %156 = sext i32 %155 to i64
  %157 = call i32 @EVP_DigestUpdate(ptr noundef %153, ptr noundef %154, i64 noundef %156)
  %158 = icmp ne i32 %157, 0
  br i1 %158, label %160, label %159

159:                                              ; preds = %152, %148, %143
  br label %250

160:                                              ; preds = %152
  %161 = load i32, ptr %15, align 4, !tbaa !12
  %162 = icmp ne i32 %161, 0
  br i1 %162, label %163, label %171

163:                                              ; preds = %160
  %164 = load ptr, ptr %23, align 8, !tbaa !16
  %165 = load ptr, ptr %21, align 8, !tbaa !8
  %166 = load i32, ptr %15, align 4, !tbaa !12
  %167 = sext i32 %166 to i64
  %168 = call i32 @EVP_DigestUpdate(ptr noundef %164, ptr noundef %165, i64 noundef %167)
  %169 = icmp ne i32 %168, 0
  br i1 %169, label %171, label %170

170:                                              ; preds = %163
  br label %250

171:                                              ; preds = %163, %160
  %172 = load ptr, ptr %23, align 8, !tbaa !16
  %173 = load ptr, ptr %20, align 8, !tbaa !8
  %174 = call i32 @EVP_DigestFinal_ex(ptr noundef %172, ptr noundef %173, ptr noundef null)
  %175 = icmp ne i32 %174, 0
  br i1 %175, label %177, label %176

176:                                              ; preds = %171
  br label %250

177:                                              ; preds = %171
  %178 = load ptr, ptr %8, align 8, !tbaa !8
  %179 = load i32, ptr %17, align 4, !tbaa !12
  %180 = sext i32 %179 to i64
  %181 = load ptr, ptr %20, align 8, !tbaa !8
  %182 = load i32, ptr %16, align 4, !tbaa !12
  %183 = sext i32 %182 to i64
  %184 = load ptr, ptr %11, align 8, !tbaa !10
  %185 = call i32 @PKCS1_MGF1(ptr noundef %178, i64 noundef %180, ptr noundef %181, i64 noundef %183, ptr noundef %184)
  %186 = icmp ne i32 %185, 0
  br i1 %186, label %187, label %188

187:                                              ; preds = %177
  br label %250

188:                                              ; preds = %177
  %189 = load ptr, ptr %8, align 8, !tbaa !8
  store ptr %189, ptr %22, align 8, !tbaa !8
  %190 = load i32, ptr %19, align 4, !tbaa !12
  %191 = load i32, ptr %15, align 4, !tbaa !12
  %192 = sub nsw i32 %190, %191
  %193 = load i32, ptr %16, align 4, !tbaa !12
  %194 = sub nsw i32 %192, %193
  %195 = sub nsw i32 %194, 2
  %196 = load ptr, ptr %22, align 8, !tbaa !8
  %197 = sext i32 %195 to i64
  %198 = getelementptr inbounds i8, ptr %196, i64 %197
  store ptr %198, ptr %22, align 8, !tbaa !8
  %199 = load ptr, ptr %22, align 8, !tbaa !8
  %200 = getelementptr inbounds nuw i8, ptr %199, i32 1
  store ptr %200, ptr %22, align 8, !tbaa !8
  %201 = load i8, ptr %199, align 1, !tbaa !33
  %202 = zext i8 %201 to i32
  %203 = xor i32 %202, 1
  %204 = trunc i32 %203 to i8
  store i8 %204, ptr %199, align 1, !tbaa !33
  %205 = load i32, ptr %15, align 4, !tbaa !12
  %206 = icmp sgt i32 %205, 0
  br i1 %206, label %207, label %229

207:                                              ; preds = %188
  store i32 0, ptr %13, align 4, !tbaa !12
  br label %208

208:                                              ; preds = %225, %207
  %209 = load i32, ptr %13, align 4, !tbaa !12
  %210 = load i32, ptr %15, align 4, !tbaa !12
  %211 = icmp slt i32 %209, %210
  br i1 %211, label %212, label %228

212:                                              ; preds = %208
  %213 = load ptr, ptr %21, align 8, !tbaa !8
  %214 = load i32, ptr %13, align 4, !tbaa !12
  %215 = sext i32 %214 to i64
  %216 = getelementptr inbounds i8, ptr %213, i64 %215
  %217 = load i8, ptr %216, align 1, !tbaa !33
  %218 = zext i8 %217 to i32
  %219 = load ptr, ptr %22, align 8, !tbaa !8
  %220 = getelementptr inbounds nuw i8, ptr %219, i32 1
  store ptr %220, ptr %22, align 8, !tbaa !8
  %221 = load i8, ptr %219, align 1, !tbaa !33
  %222 = zext i8 %221 to i32
  %223 = xor i32 %222, %218
  %224 = trunc i32 %223 to i8
  store i8 %224, ptr %219, align 1, !tbaa !33
  br label %225

225:                                              ; preds = %212
  %226 = load i32, ptr %13, align 4, !tbaa !12
  %227 = add nsw i32 %226, 1
  store i32 %227, ptr %13, align 4, !tbaa !12
  br label %208, !llvm.loop !38

228:                                              ; preds = %208
  br label %229

229:                                              ; preds = %228, %188
  %230 = load i32, ptr %18, align 4, !tbaa !12
  %231 = icmp ne i32 %230, 0
  br i1 %231, label %232, label %242

232:                                              ; preds = %229
  %233 = load i32, ptr %18, align 4, !tbaa !12
  %234 = sub nsw i32 8, %233
  %235 = ashr i32 255, %234
  %236 = load ptr, ptr %8, align 8, !tbaa !8
  %237 = getelementptr inbounds i8, ptr %236, i64 0
  %238 = load i8, ptr %237, align 1, !tbaa !33
  %239 = zext i8 %238 to i32
  %240 = and i32 %239, %235
  %241 = trunc i32 %240 to i8
  store i8 %241, ptr %237, align 1, !tbaa !33
  br label %242

242:                                              ; preds = %232, %229
  %243 = load ptr, ptr %8, align 8, !tbaa !8
  %244 = load i32, ptr %19, align 4, !tbaa !12
  %245 = sub nsw i32 %244, 1
  %246 = sext i32 %245 to i64
  %247 = getelementptr inbounds i8, ptr %243, i64 %246
  store i8 -68, ptr %247, align 1, !tbaa !33
  store i32 1, ptr %14, align 4, !tbaa !12
  %248 = load i32, ptr %15, align 4, !tbaa !12
  %249 = load ptr, ptr %12, align 8, !tbaa !14
  store i32 %248, ptr %249, align 4, !tbaa !12
  br label %250

250:                                              ; preds = %242, %187, %176, %170, %159, %142, %128, %118, %107, %82, %57, %36
  %251 = load ptr, ptr %23, align 8, !tbaa !16
  call void @EVP_MD_CTX_free(ptr noundef %251)
  %252 = load ptr, ptr %21, align 8, !tbaa !8
  %253 = load i32, ptr %15, align 4, !tbaa !12
  %254 = sext i32 %253 to i64
  call void @CRYPTO_clear_free(ptr noundef %252, i64 noundef %254, ptr noundef @.str, i32 noundef 287)
  %255 = load i32, ptr %14, align 4, !tbaa !12
  call void @llvm.lifetime.end.p0(i64 4, ptr %24) #5
  call void @llvm.lifetime.end.p0(i64 8, ptr %23) #5
  call void @llvm.lifetime.end.p0(i64 8, ptr %22) #5
  call void @llvm.lifetime.end.p0(i64 8, ptr %21) #5
  call void @llvm.lifetime.end.p0(i64 8, ptr %20) #5
  call void @llvm.lifetime.end.p0(i64 4, ptr %19) #5
  call void @llvm.lifetime.end.p0(i64 4, ptr %18) #5
  call void @llvm.lifetime.end.p0(i64 4, ptr %17) #5
  call void @llvm.lifetime.end.p0(i64 4, ptr %16) #5
  call void @llvm.lifetime.end.p0(i64 4, ptr %15) #5
  call void @llvm.lifetime.end.p0(i64 4, ptr %14) #5
  call void @llvm.lifetime.end.p0(i64 4, ptr %13) #5
  ret i32 %255
}