; Function Attrs: nounwind uwtable
define range(i32 0, 2) i32 @ossl_rsa_padding_add_PKCS1_PSS_mgf1(ptr noundef %0, ptr noundef %1, ptr noundef %2, ptr noundef %3, ptr noundef %4, ptr noundef captures(none) %5) local_unnamed_addr #0 {
  %7 = load i32, ptr %5, align 4, !tbaa !3
  %8 = icmp eq ptr %4, null
  %spec.select = select i1 %8, ptr %3, ptr %4
  %9 = tail call i32 @EVP_MD_get_size(ptr noundef %3) #10
  %10 = icmp slt i32 %9, 1
  br i1 %10, label %102, label %11

11:                                               ; preds = %6
  switch i32 %7, label %14 [
    i32 -1, label %17
    i32 -2, label %12
    i32 -4, label %13
  ]

12:                                               ; preds = %11
  br label %17

13:                                               ; preds = %11
  br label %17

14:                                               ; preds = %11
  %15 = icmp slt i32 %7, -4
  br i1 %15, label %16, label %17

16:                                               ; preds = %14
  tail call void @ERR_new() #10
  tail call void @ERR_set_debug(ptr noundef nonnull @.str, i32 noundef 216, ptr noundef nonnull @__func__.ossl_rsa_padding_add_PKCS1_PSS_mgf1) #10
  tail call void (i32, i32, ptr, ...) @ERR_set_error(i32 noundef 4, i32 noundef 136, ptr noundef null) #10
  br label %102

17:                                               ; preds = %11, %12, %14, %13
  %.190 = phi i32 [ -3, %12 ], [ -3, %13 ], [ %7, %14 ], [ %9, %11 ]
  %.0 = phi i32 [ -1, %12 ], [ %9, %13 ], [ -1, %14 ], [ %7, %11 ]
  %18 = getelementptr inbounds nuw i8, ptr %0, i64 40
  %19 = load ptr, ptr %18, align 8, !tbaa !7
  %20 = tail call i32 @BN_num_bits(ptr noundef %19) #10
  %21 = add i32 %20, 7
  %22 = and i32 %21, 7
  %23 = tail call i32 @RSA_size(ptr noundef %0) #10
  %24 = and i32 %20, 7
  %25 = icmp eq i32 %24, 1
  br i1 %25, label %26, label %29

26:                                               ; preds = %17
  %27 = getelementptr inbounds nuw i8, ptr %1, i64 1
  store i8 0, ptr %1, align 1, !tbaa !23
  %28 = add nsw i32 %23, -1
  br label %29

29:                                               ; preds = %26, %17
  %.085 = phi i32 [ %28, %26 ], [ %23, %17 ]
  %.084 = phi ptr [ %27, %26 ], [ %1, %17 ]
  %30 = add nuw nsw i32 %9, 2
  %31 = icmp slt i32 %.085, %30
  br i1 %31, label %32, label %33

32:                                               ; preds = %29
  tail call void @ERR_new() #10
  tail call void @ERR_set_debug(ptr noundef nonnull @.str, i32 noundef 227, ptr noundef nonnull @__func__.ossl_rsa_padding_add_PKCS1_PSS_mgf1) #10
  tail call void (i32, i32, ptr, ...) @ERR_set_error(i32 noundef 4, i32 noundef 110, ptr noundef null) #10
  br label %102

33:                                               ; preds = %29
  %34 = icmp eq i32 %.190, -3
  %35 = sub nsw i32 %.085, %9
  %36 = add nsw i32 %35, -2
  br i1 %34, label %37, label %40

37:                                               ; preds = %33
  %38 = tail call i32 @llvm.smin.i32(i32 %36, i32 %.0)
  %39 = icmp slt i32 %.0, 0
  %spec.select107 = select i1 %39, i32 %36, i32 %38
  br label %43

40:                                               ; preds = %33
  %41 = icmp sgt i32 %.190, %36
  br i1 %41, label %42, label %43

42:                                               ; preds = %40
  tail call void @ERR_new() #10
  tail call void @ERR_set_debug(ptr noundef nonnull @.str, i32 noundef 235, ptr noundef nonnull @__func__.ossl_rsa_padding_add_PKCS1_PSS_mgf1) #10
  tail call void (i32, i32, ptr, ...) @ERR_set_error(i32 noundef 4, i32 noundef 110, ptr noundef null) #10
  br label %102

43:                                               ; preds = %37, %40
  %.2 = phi i32 [ %.190, %40 ], [ %spec.select107, %37 ]
  %44 = icmp sgt i32 %.2, 0
  br i1 %44, label %45, label %54

45:                                               ; preds = %43
  %46 = zext nneg i32 %.2 to i64
  %47 = tail call noalias ptr @CRYPTO_malloc(i64 noundef %46, ptr noundef nonnull @.str, i32 noundef 239) #10
  %48 = icmp eq ptr %47, null
  br i1 %48, label %102, label %49

49:                                               ; preds = %45
  %50 = getelementptr inbounds nuw i8, ptr %0, i64 8
  %51 = load ptr, ptr %50, align 8, !tbaa !27
  %52 = tail call i32 @RAND_bytes_ex(ptr noundef %51, ptr noundef nonnull %47, i64 noundef %46, i32 noundef 0) #10
  %53 = icmp slt i32 %52, 1
  br i1 %53, label %102, label %54

54:                                               ; preds = %49, %43
  %.1 = phi ptr [ %47, %49 ], [ null, %43 ]
  %55 = xor i32 %9, -1
  %56 = add nsw i32 %.085, %55
  %57 = sext i32 %56 to i64
  %58 = getelementptr inbounds i8, ptr %.084, i64 %57
  %59 = tail call ptr @EVP_MD_CTX_new() #10
  %60 = icmp eq ptr %59, null
  br i1 %60, label %102, label %61

61:                                               ; preds = %54
  %62 = tail call i32 @EVP_DigestInit_ex(ptr noundef nonnull %59, ptr noundef %3, ptr noundef null) #10
  %.not = icmp eq i32 %62, 0
  br i1 %.not, label %102, label %63

63:                                               ; preds = %61
  %64 = tail call i32 @EVP_DigestUpdate(ptr noundef nonnull %59, ptr noundef nonnull @zeroes, i64 noundef 8) #10
  %.not100 = icmp eq i32 %64, 0
  br i1 %.not100, label %102, label %65

65:                                               ; preds = %63
  %66 = zext nneg i32 %9 to i64
  %67 = tail call i32 @EVP_DigestUpdate(ptr noundef nonnull %59, ptr noundef %2, i64 noundef %66) #10
  %.not101 = icmp eq i32 %67, 0
  br i1 %.not101, label %102, label %68

68:                                               ; preds = %65
  %.not102 = icmp eq i32 %.2, 0
  br i1 %.not102, label %72, label %69

69:                                               ; preds = %68
  %70 = sext i32 %.2 to i64
  %71 = tail call i32 @EVP_DigestUpdate(ptr noundef nonnull %59, ptr noundef %.1, i64 noundef %70) #10
  %.not103 = icmp eq i32 %71, 0
  br i1 %.not103, label %102, label %72

72:                                               ; preds = %69, %68
  %73 = tail call i32 @EVP_DigestFinal_ex(ptr noundef nonnull %59, ptr noundef %58, ptr noundef null) #10
  %.not104 = icmp eq i32 %73, 0
  br i1 %.not104, label %102, label %74

74:                                               ; preds = %72
  %75 = tail call i32 @PKCS1_MGF1(ptr noundef %.084, i64 noundef %57, ptr noundef %58, i64 noundef %66, ptr noundef %spec.select) #10
  %.not105 = icmp eq i32 %75, 0
  br i1 %.not105, label %76, label %102

76:                                               ; preds = %74
  %77 = add i32 %9, %.2
  %78 = sub i32 %.085, %77
  %79 = sext i32 %78 to i64
  %80 = getelementptr i8, ptr %.084, i64 %79
  %81 = getelementptr i8, ptr %80, i64 -2
  %82 = load i8, ptr %81, align 1, !tbaa !23
  %83 = xor i8 %82, 1
  store i8 %83, ptr %81, align 1, !tbaa !23
  br i1 %44, label %84, label %.loopexit

84:                                               ; preds = %76
  %85 = getelementptr i8, ptr %80, i64 -1
  %wide.trip.count = zext nneg i32 %.2 to i64
  br label %86

86:                                               ; preds = %84, %86
  %indvars.iv = phi i64 [ 0, %84 ], [ %indvars.iv.next, %86 ]
  %.082110 = phi ptr [ %85, %84 ], [ %89, %86 ]
  %87 = getelementptr inbounds nuw i8, ptr %.1, i64 %indvars.iv
  %88 = load i8, ptr %87, align 1, !tbaa !23
  %89 = getelementptr inbounds nuw i8, ptr %.082110, i64 1
  %90 = load i8, ptr %.082110, align 1, !tbaa !23
  %91 = xor i8 %90, %88
  store i8 %91, ptr %.082110, align 1, !tbaa !23
  %indvars.iv.next = add nuw nsw i64 %indvars.iv, 1
  %exitcond.not = icmp eq i64 %indvars.iv.next, %wide.trip.count
  br i1 %exitcond.not, label %.loopexit, label %86, !llvm.loop !28

.loopexit:                                        ; preds = %86, %76
  br i1 %25, label %98, label %92

92:                                               ; preds = %.loopexit
  %93 = sub nuw nsw i32 8, %22
  %94 = lshr i32 255, %93
  %95 = load i8, ptr %.084, align 1, !tbaa !23
  %96 = trunc nuw nsw i32 %94 to i8
  %97 = and i8 %95, %96
  store i8 %97, ptr %.084, align 1, !tbaa !23
  br label %98

98:                                               ; preds = %92, %.loopexit
  %99 = sext i32 %.085 to i64
  %100 = getelementptr i8, ptr %.084, i64 %99
  %101 = getelementptr i8, ptr %100, i64 -1
  store i8 -68, ptr %101, align 1, !tbaa !23
  store i32 %.2, ptr %5, align 4, !tbaa !3
  br label %102

102:                                              ; preds = %74, %72, %69, %61, %63, %65, %54, %49, %45, %6, %98, %42, %32, %16
  %.089 = phi i32 [ %7, %6 ], [ %.190, %32 ], [ %.2, %45 ], [ %.2, %49 ], [ %.2, %54 ], [ %.2, %74 ], [ %.2, %98 ], [ %.2, %72 ], [ %.2, %69 ], [ %.2, %65 ], [ %.2, %63 ], [ %.2, %61 ], [ %.190, %42 ], [ %7, %16 ]
  %.088 = phi i32 [ 0, %6 ], [ 0, %32 ], [ 0, %45 ], [ 0, %49 ], [ 0, %54 ], [ 0, %74 ], [ 1, %98 ], [ 0, %72 ], [ 0, %69 ], [ 0, %65 ], [ 0, %63 ], [ 0, %61 ], [ 0, %42 ], [ 0, %16 ]
  %.083 = phi ptr [ null, %6 ], [ null, %32 ], [ null, %45 ], [ %47, %49 ], [ %.1, %54 ], [ %.1, %74 ], [ %.1, %98 ], [ %.1, %72 ], [ %.1, %69 ], [ %.1, %65 ], [ %.1, %63 ], [ %.1, %61 ], [ null, %42 ], [ null, %16 ]
  %.081 = phi ptr [ null, %6 ], [ null, %32 ], [ null, %45 ], [ null, %49 ], [ null, %54 ], [ %59, %74 ], [ %59, %98 ], [ %59, %72 ], [ %59, %69 ], [ %59, %65 ], [ %59, %63 ], [ %59, %61 ], [ null, %42 ], [ null, %16 ]
  tail call void @EVP_MD_CTX_free(ptr noundef %.081) #10
  %103 = sext i32 %.089 to i64
  tail call void @CRYPTO_clear_free(ptr noundef %.083, i64 noundef %103, ptr noundef nonnull @.str, i32 noundef 287) #10
  ret i32 %.088
}